target datalayout = "e-m:e-p270:32:32-p271:32:32-p272:64:64-i64:64-i128:128-f80:128-n8:16:32:64-S128"
target triple = "x86_64-pc-linux-gnu"

%class.BitMap = type { ptr, i64 }
%class.G1EvacFailureRegions = type <{ %class.CHeapBitMap, %class.CHeapBitMap, %class.CHeapBitMap, ptr, i32, [4 x i8] }>
%class.CHeapBitMap = type <{ %class.GrowableBitMap, i8, [7 x i8] }>
%class.GrowableBitMap = type { %class.BitMap }
%"struct.Atomic::StoreImpl" = type { i8 }
%"struct.Atomic::PlatformStore" = type { i8 }

; Function Attrs: mustprogress nounwind uwtable
define linkonce_odr hidden void @_ZNK6Atomic13PlatformStoreILm4EEclIjEEvPVT_S3_(ptr noundef nonnull align 1 dereferenceable(1) %0, ptr noundef %1, i32 noundef %2) #1 comdat align 2 {
  %4 = alloca ptr, align 8
  %5 = alloca ptr, align 8
  %6 = alloca i32, align 4
  store ptr %0, ptr %4, align 8
  store ptr %1, ptr %5, align 8
  store i32 %2, ptr %6, align 4
  %7 = load i32, ptr %6, align 4
  %8 = load ptr, ptr %5, align 8
  store volatile i32 %7, ptr %8, align 4
  ret void
}

; Function Attrs: mustprogress nounwind uwtable
define linkonce_odr hidden void @_ZNK6Atomic9StoreImplIjjNS_13PlatformStoreILm4EEEvEclEPVjj(ptr noundef nonnull align 1 dereferenceable(1) %0, ptr noundef %1, i32 noundef %2) #1 comdat align 2 {
  %4 = alloca ptr, align 8
  %5 = alloca ptr, align 8
  %6 = alloca i32, align 4
  %7 = alloca %"struct.Atomic::PlatformStore", align 1
  store ptr %0, ptr %4, align 8
  store ptr %1, ptr %5, align 8
  store i32 %2, ptr %6, align 4
  %8 = load ptr, ptr %5, align 8
  %9 = load i32, ptr %6, align 4
  call void @_ZNK6Atomic13PlatformStoreILm4EEclIjEEvPVT_S3_(ptr noundef nonnull align 1 dereferenceable(1) %7, ptr noundef %8, i32 noundef %9)
  ret void
}

; Function Attrs: mustprogress nounwind uwtable
define linkonce_odr hidden void @_ZN6Atomic5storeIjjEEvPVT_T0_(ptr noundef %0, i32 noundef %1) #1 comdat align 2 {
  %3 = alloca ptr, align 8
  %4 = alloca i32, align 4
  %5 = alloca %"struct.Atomic::StoreImpl", align 1
  store ptr %0, ptr %3, align 8
  store i32 %1, ptr %4, align 4
  %6 = load ptr, ptr %3, align 8
  %7 = load i32, ptr %4, align 4
  call void @_ZNK6Atomic9StoreImplIjjNS_13PlatformStoreILm4EEEvEclEPVjj(ptr noundef nonnull align 1 dereferenceable(1) %5, ptr noundef %6, i32 noundef %7)
  ret void
}

; Function Attrs: mustprogress nounwind uwtable
define hidden void @_ZN20G1EvacFailureRegions14pre_collectionEj(ptr noundef nonnull align 8 dereferenceable(84) %0, i32 noundef %1) #1 align 2 {
  %3 = alloca ptr, align 8
  %4 = alloca i32, align 4
  store ptr %0, ptr %3, align 8
  store i32 %1, ptr %4, align 4
  %5 = load ptr, ptr %3, align 8
  %6 = getelementptr inbounds %class.G1EvacFailureRegions, ptr %5, i32 0, i32 4
  call void @_ZN6Atomic5storeIjjEEvPVT_T0_(ptr noundef %6, i32 noundef 0)
  %7 = getelementptr inbounds %class.G1EvacFailureRegions, ptr %5, i32 0, i32 0
  %8 = load i32, ptr %4, align 4
  %9 = zext i32 %8 to i64
  call void @_ZN14GrowableBitMapI11CHeapBitMapE6resizeEmb(ptr noundef nonnull align 8 dereferenceable(16) %7, i64 noundef %9, i1 noundef zeroext true)
  %10 = getelementptr inbounds %class.G1EvacFailureRegions, ptr %5, i32 0, i32 1
  %11 = load i32, ptr %4, align 4
  %12 = zext i32 %11 to i64
  call void @_ZN14GrowableBitMapI11CHeapBitMapE6resizeEmb(ptr noundef nonnull align 8 dereferenceable(16) %10, i64 noundef %12, i1 noundef zeroext true)
  %13 = getelementptr inbounds %class.G1EvacFailureRegions, ptr %5, i32 0, i32 2
  %14 = load i32, ptr %4, align 4
  %15 = zext i32 %14 to i64
  call void @_ZN14GrowableBitMapI11CHeapBitMapE6resizeEmb(ptr noundef nonnull align 8 dereferenceable(16) %13, i64 noundef %15, i1 noundef zeroext true)
  %16 = load i32, ptr %4, align 4
  %17 = zext i32 %16 to i64
  %18 = mul i64 %17, 4
  %19 = call noundef ptr @_Z12AllocateHeapm8MEMFLAGSN17AllocFailStrategy13AllocFailEnumE(i64 noundef %18, i8 noundef zeroext 5, i32 noundef 0)
  %20 = getelementptr inbounds %class.G1EvacFailureRegions, ptr %5, i32 0, i32 3
  store ptr %19, ptr %20, align 8
  ret void
}