; Function Attrs: mustprogress nounwind uwtable
define hidden void @_ZN20G1EvacFailureRegions14pre_collectionEj(ptr noundef nonnull align 8 dereferenceable(84) %0, i32 noundef %1) local_unnamed_addr #1 align 2 {
  %3 = getelementptr inbounds i8, ptr %0, i64 80
  store volatile i32 0, ptr %3, align 8
  %4 = zext i32 %1 to i64
  tail call void @_ZN14GrowableBitMapI11CHeapBitMapE6resizeEmb(ptr noundef nonnull align 8 dereferenceable(16) %0, i64 noundef %4, i1 noundef zeroext true) #11
  %5 = getelementptr inbounds i8, ptr %0, i64 24
  tail call void @_ZN14GrowableBitMapI11CHeapBitMapE6resizeEmb(ptr noundef nonnull align 8 dereferenceable(16) %5, i64 noundef %4, i1 noundef zeroext true) #11
  %6 = getelementptr inbounds i8, ptr %0, i64 48
  tail call void @_ZN14GrowableBitMapI11CHeapBitMapE6resizeEmb(ptr noundef nonnull align 8 dereferenceable(16) %6, i64 noundef %4, i1 noundef zeroext true) #11
  %7 = shl nuw nsw i64 %4, 2
  %8 = tail call noundef ptr @_Z12AllocateHeapm8MEMFLAGSN17AllocFailStrategy13AllocFailEnumE(i64 noundef %7, i8 noundef zeroext 5, i32 noundef 0) #11
  %9 = getelementptr inbounds i8, ptr %0, i64 72
  store ptr %8, ptr %9, align 8
  ret void
}